#include <math.h>
#include <stdio.h>
#include <stdlib.h>
#include <string.h>

int main(){
	int n,k,sz[1000],i,m,sc[500500],l;
	scanf("%d %d",&n,&k);
	l=0;
	for(i=0;i<n;i++){
		scanf("%d",&sz[i]);}
	for(i=0;i<n;i++){
		for(m=1;m<n-i;m++){
			sc[l]=sz[i]+sz[m];
			l=l+1;};}
	for(i=0;i<l;i++){
		if(k==sc[i]){printf("yes");
		return 0;}}
	printf("no");
	return 0;
}